; Function Attrs: nounwind uwtable
define dso_local i32 @Curl_conn_upkeep(ptr noundef %0, ptr noundef %1, ptr noundef readonly captures(none) %2) local_unnamed_addr #0 {
  %4 = getelementptr inbounds nuw i8, ptr %1, i64 944
  %5 = load i64, ptr %2, align 8
  %6 = getelementptr inbounds nuw i8, ptr %2, i64 8
  %7 = load i32, ptr %6, align 8
  %8 = load i64, ptr %4, align 8
  %9 = getelementptr inbounds nuw i8, ptr %1, i64 952
  %10 = load i32, ptr %9, align 8
  %11 = tail call i64 @Curl_timediff(i64 %5, i32 %7, i64 %8, i32 %10) #12
  %12 = getelementptr inbounds nuw i8, ptr %0, i64 2504
  %13 = load i64, ptr %12, align 8, !tbaa !211
  %.not = icmp sgt i64 %11, %13
  br i1 %.not, label %14, label %25

14:                                               ; preds = %3
  tail call void @Curl_attach_connection(ptr noundef nonnull %0, ptr noundef nonnull %1) #12
  %15 = getelementptr inbounds nuw i8, ptr %1, i64 928
  %16 = load ptr, ptr %15, align 8, !tbaa !203
  %17 = getelementptr inbounds nuw i8, ptr %16, i64 120
  %18 = load ptr, ptr %17, align 8, !tbaa !204
  %.not19 = icmp eq ptr %18, null
  br i1 %.not19, label %22, label %19

19:                                               ; preds = %14
  %20 = tail call i32 %18(ptr noundef nonnull %0, ptr noundef nonnull %1, i32 noundef 2) #12
  %21 = and i32 %20, 1
  %.not20 = icmp eq i32 %21, 0
  %spec.select = select i1 %.not20, i32 0, i32 56
  br label %24

22:                                               ; preds = %14
  %23 = tail call i32 @Curl_conn_keep_alive(ptr noundef nonnull %0, ptr noundef nonnull %1, i32 noundef 0) #12
  br label %24

24:                                               ; preds = %22, %19
  %.1 = phi i32 [ %spec.select, %19 ], [ %23, %22 ]
  tail call void @Curl_detach_connection(ptr noundef nonnull %0) #12
  tail call void @llvm.memcpy.p0.p0.i64(ptr noundef nonnull align 8 dereferenceable(16) %4, ptr noundef nonnull align 8 dereferenceable(16) %2, i64 16, i1 false), !tbaa.struct !212
  br label %25

25:                                               ; preds = %3, %24
  %.0 = phi i32 [ %.1, %24 ], [ 0, %3 ]
  ret i32 %.0
}